target datalayout = "e-m:e-p270:32:32-p271:32:32-p272:64:64-i64:64-i128:128-f80:128-n8:16:32:64-S128"
target triple = "x86_64-pc-linux-gnu"

%struct.formnode = type { i16, i16, i16, i32, i32, i32, i32, i16, i16, i16, i32, ptr, ptr, ptr, ptr, ptr, ptr, ptr, ptr, ptr, ptr, ptr }
%struct.fieldnode = type { i16, i16, i16, i16, i16, i32, i32, i32, i32, i16, i16, i16, i16, i32, i32, i32, i32, ptr, ptr, ptr, ptr, ptr, ptr, ptr, ptr }

; Function Attrs: nounwind uwtable
define internal ptr @Sorted_Next_Field(ptr noundef %0) #0 {
  %2 = alloca ptr, align 8
  %3 = alloca ptr, align 8
  store ptr %0, ptr %2, align 8, !tbaa !17
  call void @llvm.lifetime.start.p0(i64 8, ptr %3) #9
  %4 = load ptr, ptr %2, align 8, !tbaa !17
  store ptr %4, ptr %3, align 8, !tbaa !17
  br label %5

5:                                                ; preds = %16, %1
  %6 = load ptr, ptr %3, align 8, !tbaa !17
  %7 = getelementptr inbounds nuw %struct.fieldnode, ptr %6, i32 0, i32 17
  %8 = load ptr, ptr %7, align 8, !tbaa !93
  store ptr %8, ptr %3, align 8, !tbaa !17
  %9 = load ptr, ptr %3, align 8, !tbaa !17
  %10 = getelementptr inbounds nuw %struct.fieldnode, ptr %9, i32 0, i32 16
  %11 = load i32, ptr %10, align 8, !tbaa !23
  %12 = and i32 %11, 3
  %13 = icmp eq i32 %12, 3
  br i1 %13, label %14, label %15

14:                                               ; preds = %5
  br label %20

15:                                               ; preds = %5
  br label %16

16:                                               ; preds = %15
  %17 = load ptr, ptr %3, align 8, !tbaa !17
  %18 = load ptr, ptr %2, align 8, !tbaa !17
  %19 = icmp ne ptr %17, %18
  br i1 %19, label %5, label %20, !llvm.loop !120

20:                                               ; preds = %16, %14
  %21 = load ptr, ptr %3, align 8, !tbaa !17
  call void @llvm.lifetime.end.p0(i64 8, ptr %3) #9
  ret ptr %21
}

; Function Attrs: nounwind uwtable
define internal ptr @Sorted_Previous_Field(ptr noundef %0) #0 {
  %2 = alloca ptr, align 8
  %3 = alloca ptr, align 8
  store ptr %0, ptr %2, align 8, !tbaa !17
  call void @llvm.lifetime.start.p0(i64 8, ptr %3) #9
  %4 = load ptr, ptr %2, align 8, !tbaa !17
  store ptr %4, ptr %3, align 8, !tbaa !17
  br label %5

5:                                                ; preds = %16, %1
  %6 = load ptr, ptr %3, align 8, !tbaa !17
  %7 = getelementptr inbounds nuw %struct.fieldnode, ptr %6, i32 0, i32 18
  %8 = load ptr, ptr %7, align 8, !tbaa !121
  store ptr %8, ptr %3, align 8, !tbaa !17
  %9 = load ptr, ptr %3, align 8, !tbaa !17
  %10 = getelementptr inbounds nuw %struct.fieldnode, ptr %9, i32 0, i32 16
  %11 = load i32, ptr %10, align 8, !tbaa !23
  %12 = and i32 %11, 3
  %13 = icmp eq i32 %12, 3
  br i1 %13, label %14, label %15

14:                                               ; preds = %5
  br label %20

15:                                               ; preds = %5
  br label %16

16:                                               ; preds = %15
  %17 = load ptr, ptr %3, align 8, !tbaa !17
  %18 = load ptr, ptr %2, align 8, !tbaa !17
  %19 = icmp ne ptr %17, %18
  br i1 %19, label %5, label %20, !llvm.loop !122

20:                                               ; preds = %16, %14
  %21 = load ptr, ptr %3, align 8, !tbaa !17
  call void @llvm.lifetime.end.p0(i64 8, ptr %3) #9
  ret ptr %21
}

; Function Attrs: nounwind uwtable
define internal ptr @Upper_Neighbour_Field(ptr noundef %0) #0 {
  %2 = alloca ptr, align 8
  %3 = alloca ptr, align 8
  %4 = alloca i32, align 4
  %5 = alloca i32, align 4
  store ptr %0, ptr %2, align 8, !tbaa !17
  call void @llvm.lifetime.start.p0(i64 8, ptr %3) #9
  %6 = load ptr, ptr %2, align 8, !tbaa !17
  store ptr %6, ptr %3, align 8, !tbaa !17
  call void @llvm.lifetime.start.p0(i64 4, ptr %4) #9
  %7 = load ptr, ptr %2, align 8, !tbaa !17
  %8 = getelementptr inbounds nuw %struct.fieldnode, ptr %7, i32 0, i32 3
  %9 = load i16, ptr %8, align 2, !tbaa !31
  %10 = sext i16 %9 to i32
  store i32 %10, ptr %4, align 4, !tbaa !35
  call void @llvm.lifetime.start.p0(i64 4, ptr %5) #9
  %11 = load ptr, ptr %2, align 8, !tbaa !17
  %12 = getelementptr inbounds nuw %struct.fieldnode, ptr %11, i32 0, i32 4
  %13 = load i16, ptr %12, align 8, !tbaa !33
  %14 = sext i16 %13 to i32
  store i32 %14, ptr %5, align 4, !tbaa !35
  br label %15

15:                                               ; preds = %32, %1
  %16 = load ptr, ptr %3, align 8, !tbaa !17
  %17 = call ptr @Sorted_Previous_Field(ptr noundef %16)
  store ptr %17, ptr %3, align 8, !tbaa !17
  br label %18

18:                                               ; preds = %15
  %19 = load ptr, ptr %3, align 8, !tbaa !17
  %20 = getelementptr inbounds nuw %struct.fieldnode, ptr %19, i32 0, i32 3
  %21 = load i16, ptr %20, align 2, !tbaa !31
  %22 = sext i16 %21 to i32
  %23 = load i32, ptr %4, align 4, !tbaa !35
  %24 = icmp eq i32 %22, %23
  br i1 %24, label %25, label %32

25:                                               ; preds = %18
  %26 = load ptr, ptr %3, align 8, !tbaa !17
  %27 = getelementptr inbounds nuw %struct.fieldnode, ptr %26, i32 0, i32 4
  %28 = load i16, ptr %27, align 8, !tbaa !33
  %29 = sext i16 %28 to i32
  %30 = load i32, ptr %5, align 4, !tbaa !35
  %31 = icmp ne i32 %29, %30
  br label %32

32:                                               ; preds = %25, %18
  %33 = phi i1 [ false, %18 ], [ %31, %25 ]
  br i1 %33, label %15, label %34, !llvm.loop !125

34:                                               ; preds = %32
  %35 = load ptr, ptr %3, align 8, !tbaa !17
  %36 = getelementptr inbounds nuw %struct.fieldnode, ptr %35, i32 0, i32 3
  %37 = load i16, ptr %36, align 2, !tbaa !31
  %38 = sext i16 %37 to i32
  %39 = load i32, ptr %4, align 4, !tbaa !35
  %40 = icmp ne i32 %38, %39
  br i1 %40, label %41, label %76

41:                                               ; preds = %34
  %42 = load ptr, ptr %3, align 8, !tbaa !17
  %43 = getelementptr inbounds nuw %struct.fieldnode, ptr %42, i32 0, i32 3
  %44 = load i16, ptr %43, align 2, !tbaa !31
  %45 = sext i16 %44 to i32
  store i32 %45, ptr %4, align 4, !tbaa !35
  br label %46

46:                                               ; preds = %62, %41
  %47 = load ptr, ptr %3, align 8, !tbaa !17
  %48 = getelementptr inbounds nuw %struct.fieldnode, ptr %47, i32 0, i32 3
  %49 = load i16, ptr %48, align 2, !tbaa !31
  %50 = sext i16 %49 to i32
  %51 = load i32, ptr %4, align 4, !tbaa !35
  %52 = icmp eq i32 %50, %51
  br i1 %52, label %53, label %60

53:                                               ; preds = %46
  %54 = load ptr, ptr %3, align 8, !tbaa !17
  %55 = getelementptr inbounds nuw %struct.fieldnode, ptr %54, i32 0, i32 4
  %56 = load i16, ptr %55, align 8, !tbaa !33
  %57 = sext i16 %56 to i32
  %58 = load i32, ptr %5, align 4, !tbaa !35
  %59 = icmp sgt i32 %57, %58
  br label %60

60:                                               ; preds = %53, %46
  %61 = phi i1 [ false, %46 ], [ %59, %53 ]
  br i1 %61, label %62, label %65

62:                                               ; preds = %60
  %63 = load ptr, ptr %3, align 8, !tbaa !17
  %64 = call ptr @Sorted_Previous_Field(ptr noundef %63)
  store ptr %64, ptr %3, align 8, !tbaa !17
  br label %46, !llvm.loop !126

65:                                               ; preds = %60
  %66 = load ptr, ptr %3, align 8, !tbaa !17
  %67 = getelementptr inbounds nuw %struct.fieldnode, ptr %66, i32 0, i32 3
  %68 = load i16, ptr %67, align 2, !tbaa !31
  %69 = sext i16 %68 to i32
  %70 = load i32, ptr %4, align 4, !tbaa !35
  %71 = icmp ne i32 %69, %70
  br i1 %71, label %72, label %75

72:                                               ; preds = %65
  %73 = load ptr, ptr %3, align 8, !tbaa !17
  %74 = call ptr @Sorted_Next_Field(ptr noundef %73)
  store ptr %74, ptr %3, align 8, !tbaa !17
  br label %75

75:                                               ; preds = %72, %65
  br label %76

76:                                               ; preds = %75, %34
  %77 = load ptr, ptr %3, align 8, !tbaa !17
  call void @llvm.lifetime.end.p0(i64 4, ptr %5) #9
  call void @llvm.lifetime.end.p0(i64 4, ptr %4) #9
  call void @llvm.lifetime.end.p0(i64 8, ptr %3) #9
  ret ptr %77
}

; Function Attrs: nounwind uwtable
define internal i32 @FN_Up_Field(ptr noundef %0) #0 {
  %2 = alloca ptr, align 8
  store ptr %0, ptr %2, align 8, !tbaa !4
  %3 = load ptr, ptr %2, align 8, !tbaa !4
  %4 = load ptr, ptr %2, align 8, !tbaa !4
  %5 = getelementptr inbounds nuw %struct.formnode, ptr %4, i32 0, i32 15
  %6 = load ptr, ptr %5, align 8, !tbaa !16
  %7 = call ptr @Upper_Neighbour_Field(ptr noundef %6)
  %8 = call i32 @_nc_Set_Current_Field(ptr noundef %3, ptr noundef %7)
  ret i32 %8
}